; Function Attrs: mustprogress nofree norecurse nosync nounwind willreturn memory(argmem: write) uwtable
define dso_local void @_ZN4node6crypto10ByteSource9AllocatedEPvm(ptr noalias nocapture writeonly sret(%"class.node::crypto::ByteSource") align 8 %agg.result, ptr noundef %data, i64 noundef %size) local_unnamed_addr #10 align 2 {
entry:
  store ptr %data, ptr %agg.result, align 8
  %allocated_data_.i = getelementptr inbounds i8, ptr %agg.result, i64 8
  store ptr %data, ptr %allocated_data_.i, align 8
  %size_.i = getelementptr inbounds i8, ptr %agg.result, i64 16
  store i64 %size, ptr %size_.i, align 8
  ret void
}